target datalayout = "e-m:e-p270:32:32-p271:32:32-p272:64:64-i64:64-i128:128-f80:128-n8:16:32:64-S128"
target triple = "x86_64-pc-linux-gnu"

%struct.SDL_VideoDevice = type { ptr, ptr, ptr, ptr, ptr, ptr, ptr, ptr, ptr, ptr, ptr, ptr, ptr, ptr, ptr, ptr, ptr, ptr, ptr, ptr, ptr, ptr, ptr, ptr, ptr, ptr, ptr, ptr, ptr, ptr, ptr, ptr, ptr, ptr, ptr, ptr, ptr, ptr, ptr, ptr, ptr, ptr, ptr, ptr, ptr, ptr, ptr, ptr, ptr, ptr, ptr, ptr, ptr, ptr, ptr, ptr, ptr, ptr, ptr, ptr, ptr, ptr, ptr, ptr, ptr, ptr, ptr, ptr, ptr, ptr, ptr, ptr, ptr, ptr, ptr, ptr, ptr, ptr, ptr, ptr, ptr, ptr, ptr, ptr, ptr, ptr, ptr, ptr, ptr, ptr, ptr, ptr, ptr, ptr, ptr, ptr, ptr, i64, i8, i8, i8, ptr, i32, ptr, %struct.SDL_Rect, ptr, ptr, i32, ptr, ptr, ptr, ptr, i64, ptr, i8, i32, i32, %struct.anon, ptr, ptr, ptr, ptr, ptr, ptr, %struct.SDL_AtomicInt, %struct.SDL_AtomicInt, i8, %struct.anon.0, ptr, ptr, ptr, ptr, ptr }
%struct.SDL_Rect = type { i32, i32, i32, i32 }
%struct.anon = type { i32, i32, i32, i32, i32, i32, i32, i32, i32, i32, i32, i32, i32, i32, i32, i32, i32, i32, i32, i32, i32, i32, i32, i32, i32, i32, i32, i32, i32, [256 x i8], ptr }
%struct.SDL_AtomicInt = type { i32 }
%struct.anon.0 = type { ptr, ptr, i32, [256 x i8], ptr }

; Function Attrs: nounwind uwtable
define hidden ptr @SDL_GetInternalClipboardData(ptr noundef %0, ptr noundef %1, ptr noundef %2) #0 {
  %4 = alloca ptr, align 8
  %5 = alloca ptr, align 8
  %6 = alloca ptr, align 8
  %7 = alloca ptr, align 8
  %8 = alloca ptr, align 8
  store ptr %0, ptr %4, align 8
  store ptr %1, ptr %5, align 8
  store ptr %2, ptr %6, align 8
  call void @llvm.lifetime.start.p0(i64 8, ptr %7) #5
  store ptr null, ptr %7, align 8
  %9 = load ptr, ptr %4, align 8
  %10 = getelementptr inbounds nuw %struct.SDL_VideoDevice, ptr %9, i32 0, i32 108
  %11 = load ptr, ptr %10, align 8
  %12 = icmp ne ptr %11, null
  br i1 %12, label %13, label %43

13:                                               ; preds = %3
  call void @llvm.lifetime.start.p0(i64 8, ptr %8) #5
  %14 = load ptr, ptr %4, align 8
  %15 = getelementptr inbounds nuw %struct.SDL_VideoDevice, ptr %14, i32 0, i32 108
  %16 = load ptr, ptr %15, align 8
  %17 = load ptr, ptr %4, align 8
  %18 = getelementptr inbounds nuw %struct.SDL_VideoDevice, ptr %17, i32 0, i32 110
  %19 = load ptr, ptr %18, align 8
  %20 = load ptr, ptr %5, align 8
  %21 = load ptr, ptr %6, align 8
  %22 = call ptr %16(ptr noundef %19, ptr noundef %20, ptr noundef %21)
  store ptr %22, ptr %8, align 8
  %23 = load ptr, ptr %8, align 8
  %24 = icmp ne ptr %23, null
  br i1 %24, label %25, label %42

25:                                               ; preds = %13
  %26 = load ptr, ptr %6, align 8
  %27 = load i64, ptr %26, align 8
  %28 = add i64 %27, 4
  %29 = call noalias ptr @SDL_malloc_REAL(i64 noundef %28)
  store ptr %29, ptr %7, align 8
  %30 = load ptr, ptr %7, align 8
  %31 = icmp ne ptr %30, null
  br i1 %31, label %32, label %41

32:                                               ; preds = %25
  %33 = load ptr, ptr %7, align 8
  %34 = load ptr, ptr %8, align 8
  %35 = load ptr, ptr %6, align 8
  %36 = load i64, ptr %35, align 8
  call void @llvm.memcpy.p0.p0.i64(ptr align 1 %33, ptr align 1 %34, i64 %36, i1 false)
  %37 = load ptr, ptr %7, align 8
  %38 = load ptr, ptr %6, align 8
  %39 = load i64, ptr %38, align 8
  %40 = getelementptr inbounds nuw i8, ptr %37, i64 %39
  call void @llvm.memset.p0.i64(ptr align 1 %40, i8 0, i64 4, i1 false)
  br label %41

41:                                               ; preds = %32, %25
  br label %42

42:                                               ; preds = %41, %13
  call void @llvm.lifetime.end.p0(i64 8, ptr %8) #5
  br label %43

43:                                               ; preds = %42, %3
  %44 = load ptr, ptr %7, align 8
  call void @llvm.lifetime.end.p0(i64 8, ptr %7) #5
  ret ptr %44
}