; Function Attrs: nounwind uwtable
define hidden ptr @SDL_GetInternalClipboardData(ptr noundef readonly captures(none) %0, ptr noundef %1, ptr noundef %2) local_unnamed_addr #0 {
  %4 = getelementptr inbounds nuw i8, ptr %0, i64 856
  %5 = load ptr, ptr %4, align 8
  %.not = icmp eq ptr %5, null
  br i1 %.not, label %17, label %6

6:                                                ; preds = %3
  %7 = getelementptr inbounds nuw i8, ptr %0, i64 872
  %8 = load ptr, ptr %7, align 8
  %9 = tail call ptr %5(ptr noundef %8, ptr noundef %1, ptr noundef %2) #6
  %.not18 = icmp eq ptr %9, null
  br i1 %.not18, label %17, label %10

10:                                               ; preds = %6
  %11 = load i64, ptr %2, align 8
  %12 = add i64 %11, 4
  %13 = tail call noalias ptr @SDL_malloc_REAL(i64 noundef %12) #6
  %.not19 = icmp eq ptr %13, null
  br i1 %.not19, label %17, label %14

14:                                               ; preds = %10
  %15 = load i64, ptr %2, align 8
  tail call void @llvm.memcpy.p0.p0.i64(ptr nonnull align 1 %13, ptr nonnull align 1 %9, i64 %15, i1 false)
  %16 = getelementptr inbounds nuw i8, ptr %13, i64 %15
  store i32 0, ptr %16, align 1
  br label %17

17:                                               ; preds = %6, %14, %10, %3
  %.0 = phi ptr [ null, %3 ], [ %13, %14 ], [ null, %10 ], [ null, %6 ]
  ret ptr %.0
}